target datalayout = "e-m:e-p270:32:32-p271:32:32-p272:64:64-i64:64-i128:128-f80:128-n8:16:32:64-S128"
target triple = "x86_64-pc-linux-gnu"

%struct._dtd_build_data_t = type { ptr, ptr, ptr, ptr, i8, ptr, ptr, ptr }

@build_data = internal global ptr null, align 8

; Function Attrs: null_pointer_is_valid sspstrong uwtable
define internal void @set_proto_root(ptr noundef %0) #0 {
  %2 = alloca ptr, align 8
  store ptr %0, ptr %2, align 8
  %3 = load ptr, ptr @build_data, align 8
  %4 = getelementptr inbounds nuw %struct._dtd_build_data_t, ptr %3, i32 0, i32 3
  %5 = load ptr, ptr %4, align 8
  call void @g_free(ptr noundef %5)
  %6 = load ptr, ptr %2, align 8
  %7 = call noalias ptr @g_strdup(ptr noundef %6)
  %8 = load ptr, ptr @build_data, align 8
  %9 = getelementptr inbounds nuw %struct._dtd_build_data_t, ptr %8, i32 0, i32 3
  store ptr %7, ptr %9, align 8
  ret void
}