; Function Attrs: null_pointer_is_valid sspstrong uwtable
define internal void @set_proto_root(ptr noundef %0) #0 {
  %2 = load ptr, ptr @build_data, align 8
  %3 = getelementptr inbounds nuw i8, ptr %2, i64 24
  %4 = load ptr, ptr %3, align 8
  tail call void @g_free(ptr noundef %4)
  %5 = tail call noalias ptr @g_strdup(ptr noundef %0)
  %6 = load ptr, ptr @build_data, align 8
  %7 = getelementptr inbounds nuw i8, ptr %6, i64 24
  store ptr %5, ptr %7, align 8
  ret void
}